; Function Attrs: nounwind uwtable
define void @duckdb_je_malloc_mutex_postfork_child(ptr noundef readnone captures(none) %0, ptr noundef initializes((0, 64)) %1) local_unnamed_addr #0 {
  %3 = alloca %union.pthread_mutexattr_t, align 4
  %4 = getelementptr inbounds nuw i8, ptr %1, i64 8
  tail call void @llvm.memset.p0.i64(ptr noundef nonnull align 8 dereferenceable(64) %1, i8 0, i64 64, i1 false)
  tail call void @duckdb_je_nstime_copy(ptr noundef nonnull %4, ptr noundef nonnull @nstime_zero) #7
  tail call void @duckdb_je_nstime_copy(ptr noundef nonnull %1, ptr noundef nonnull @nstime_zero) #7
  %5 = getelementptr inbounds nuw i8, ptr %1, i64 48
  store ptr null, ptr %5, align 8, !tbaa !19
  call void @llvm.lifetime.start.p0(i64 4, ptr nonnull %3) #7
  %6 = call i32 @pthread_mutexattr_init(ptr noundef nonnull %3) #7
  %.not.i = icmp eq i32 %6, 0
  br i1 %.not.i, label %duckdb_je_malloc_mutex_init.exit, label %duckdb_je_malloc_mutex_init.exit.thread

duckdb_je_malloc_mutex_init.exit.thread:          ; preds = %2
  call void @llvm.lifetime.end.p0(i64 4, ptr nonnull %3) #7
  br label %11

duckdb_je_malloc_mutex_init.exit:                 ; preds = %2
  %7 = call i32 @pthread_mutexattr_settype(ptr noundef nonnull %3, i32 noundef 0) #7
  %8 = getelementptr inbounds nuw i8, ptr %1, i64 72
  %9 = call i32 @pthread_mutex_init(ptr noundef nonnull %8, ptr noundef nonnull %3) #7
  %.not3.i.not = icmp eq i32 %9, 0
  %10 = call i32 @pthread_mutexattr_destroy(ptr noundef nonnull %3) #7
  call void @llvm.lifetime.end.p0(i64 4, ptr nonnull %3) #7
  br i1 %.not3.i.not, label %15, label %11

11:                                               ; preds = %duckdb_je_malloc_mutex_init.exit.thread, %duckdb_je_malloc_mutex_init.exit
  call void (ptr, ...) @duckdb_je_malloc_printf(ptr noundef nonnull @.str) #7
  %12 = load i8, ptr @duckdb_je_opt_abort, align 1, !tbaa !22, !range !24, !noundef !25
  %13 = trunc nuw i8 %12 to i1
  br i1 %13, label %14, label %15

14:                                               ; preds = %11
  call void @abort() #8
  unreachable

15:                                               ; preds = %11, %duckdb_je_malloc_mutex_init.exit
  ret void
}